; Function Attrs: nounwind uwtable
define internal noundef ptr @nodefault_new(ptr readnone captures(none) %0, ptr noundef readonly captures(none) %1, ptr noundef readonly %2) #0 {
  %4 = getelementptr i8, ptr %1, i64 16
  %.val = load i64, ptr %4, align 8, !tbaa !4
  %.not = icmp eq i64 %.val, 0
  br i1 %.not, label %5, label %8

5:                                                ; preds = %3
  %.not5 = icmp eq ptr %2, null
  br i1 %.not5, label %10, label %6

6:                                                ; preds = %5
  %7 = getelementptr i8, ptr %2, i64 16
  %.val7 = load i64, ptr %7, align 8, !tbaa !12
  %.not6 = icmp eq i64 %.val7, 0
  br i1 %.not6, label %10, label %8

8:                                                ; preds = %6, %3
  %9 = load ptr, ptr @PyExc_TypeError, align 8, !tbaa !16
  tail call void @PyErr_SetString(ptr noundef %9, ptr noundef nonnull @.str.20) #8
  br label %10

10:                                               ; preds = %5, %6, %8
  %.0 = phi ptr [ null, %8 ], [ @_Py_NoDefaultStruct, %6 ], [ @_Py_NoDefaultStruct, %5 ]
  ret ptr %.0
}